target datalayout = "e-m:e-p270:32:32-p271:32:32-p272:64:64-i64:64-i128:128-f80:128-n8:16:32:64-S128"
target triple = "x86_64-pc-linux-gnu"

%struct.slurm_step_id_msg = type { i64, i32, i32, i32 }
%struct.step_complete_msg = type { i32, i32, %struct.slurm_step_id_msg, i32, ptr, i8 }

@.str.2 = private unnamed_addr constant [22 x i8] c"slurm_protocol_pack.c\00", align 1
@__func__._unpack_step_complete_msg = private unnamed_addr constant [26 x i8] c"_unpack_step_complete_msg\00", align 1

; Function Attrs: nounwind uwtable
define internal i32 @_unpack_step_complete_msg(ptr noundef %0, ptr noundef %1, i16 noundef zeroext %2) #0 {
  %4 = alloca i32, align 4
  %5 = alloca ptr, align 8
  %6 = alloca ptr, align 8
  %7 = alloca i16, align 2
  %8 = alloca ptr, align 8
  %9 = alloca i32, align 4
  store ptr %0, ptr %5, align 8
  store ptr %1, ptr %6, align 8
  store i16 %2, ptr %7, align 2
  call void @llvm.lifetime.start.p0(i64 8, ptr %8) #6
  %10 = call ptr @slurm_xcalloc(i64 noundef 1, i64 noundef 56, i1 noundef zeroext true, i1 noundef zeroext false, ptr noundef @.str.2, i32 noundef 9049, ptr noundef @__func__._unpack_step_complete_msg)
  store ptr %10, ptr %8, align 8
  %11 = load ptr, ptr %8, align 8
  %12 = load ptr, ptr %5, align 8
  store ptr %11, ptr %12, align 8
  %13 = load i16, ptr %7, align 2
  %14 = zext i16 %13 to i32
  %15 = icmp sge i32 %14, 10496
  br i1 %15, label %16, label %73

16:                                               ; preds = %3
  %17 = load ptr, ptr %8, align 8
  %18 = getelementptr inbounds nuw %struct.step_complete_msg, ptr %17, i32 0, i32 2
  %19 = load ptr, ptr %6, align 8
  %20 = load i16, ptr %7, align 2
  %21 = call i32 @unpack_step_id_members(ptr noundef %18, ptr noundef %19, i16 noundef zeroext %20)
  %22 = icmp ne i32 %21, 0
  br i1 %22, label %23, label %24

23:                                               ; preds = %16
  br label %126

24:                                               ; preds = %16
  br label %25

25:                                               ; preds = %24
  %26 = load ptr, ptr %8, align 8
  %27 = getelementptr inbounds nuw %struct.step_complete_msg, ptr %26, i32 0, i32 0
  %28 = load ptr, ptr %6, align 8
  %29 = call i32 @unpack32(ptr noundef %27, ptr noundef %28)
  %30 = icmp ne i32 %29, 0
  br i1 %30, label %31, label %32

31:                                               ; preds = %25
  br label %126

32:                                               ; preds = %25
  br label %33

33:                                               ; preds = %32
  br label %34

34:                                               ; preds = %33
  br label %35

35:                                               ; preds = %34
  %36 = load ptr, ptr %8, align 8
  %37 = getelementptr inbounds nuw %struct.step_complete_msg, ptr %36, i32 0, i32 1
  %38 = load ptr, ptr %6, align 8
  %39 = call i32 @unpack32(ptr noundef %37, ptr noundef %38)
  %40 = icmp ne i32 %39, 0
  br i1 %40, label %41, label %42

41:                                               ; preds = %35
  br label %126

42:                                               ; preds = %35
  br label %43

43:                                               ; preds = %42
  br label %44

44:                                               ; preds = %43
  br label %45

45:                                               ; preds = %44
  %46 = load ptr, ptr %8, align 8
  %47 = getelementptr inbounds nuw %struct.step_complete_msg, ptr %46, i32 0, i32 3
  %48 = load ptr, ptr %6, align 8
  %49 = call i32 @unpack32(ptr noundef %47, ptr noundef %48)
  %50 = icmp ne i32 %49, 0
  br i1 %50, label %51, label %52

51:                                               ; preds = %45
  br label %126

52:                                               ; preds = %45
  br label %53

53:                                               ; preds = %52
  br label %54

54:                                               ; preds = %53
  %55 = load ptr, ptr %8, align 8
  %56 = getelementptr inbounds nuw %struct.step_complete_msg, ptr %55, i32 0, i32 4
  %57 = load i16, ptr %7, align 2
  %58 = load ptr, ptr %6, align 8
  %59 = call i32 @jobacctinfo_unpack(ptr noundef %56, i16 noundef zeroext %57, i16 noundef zeroext 0, ptr noundef %58, i1 noundef zeroext true)
  %60 = icmp ne i32 %59, 0
  br i1 %60, label %61, label %62

61:                                               ; preds = %54
  br label %126

62:                                               ; preds = %54
  br label %63

63:                                               ; preds = %62
  %64 = load ptr, ptr %8, align 8
  %65 = getelementptr inbounds nuw %struct.step_complete_msg, ptr %64, i32 0, i32 5
  %66 = load ptr, ptr %6, align 8
  %67 = call i32 @unpackbool(ptr noundef %65, ptr noundef %66)
  %68 = icmp ne i32 %67, 0
  br i1 %68, label %69, label %70

69:                                               ; preds = %63
  br label %126

70:                                               ; preds = %63
  br label %71

71:                                               ; preds = %70
  br label %72

72:                                               ; preds = %71
  br label %125

73:                                               ; preds = %3
  %74 = load i16, ptr %7, align 2
  %75 = zext i16 %74 to i32
  %76 = icmp sge i32 %75, 10240
  br i1 %76, label %77, label %124

77:                                               ; preds = %73
  %78 = load ptr, ptr %8, align 8
  %79 = getelementptr inbounds nuw %struct.step_complete_msg, ptr %78, i32 0, i32 2
  %80 = load ptr, ptr %6, align 8
  %81 = load i16, ptr %7, align 2
  %82 = call i32 @unpack_step_id_members(ptr noundef %79, ptr noundef %80, i16 noundef zeroext %81)
  %83 = icmp ne i32 %82, 0
  br i1 %83, label %84, label %85

84:                                               ; preds = %77
  br label %126

85:                                               ; preds = %77
  br label %86

86:                                               ; preds = %85
  %87 = load ptr, ptr %8, align 8
  %88 = getelementptr inbounds nuw %struct.step_complete_msg, ptr %87, i32 0, i32 0
  %89 = load ptr, ptr %6, align 8
  %90 = call i32 @unpack32(ptr noundef %88, ptr noundef %89)
  %91 = icmp ne i32 %90, 0
  br i1 %91, label %92, label %93

92:                                               ; preds = %86
  br label %126

93:                                               ; preds = %86
  br label %94

94:                                               ; preds = %93
  br label %95

95:                                               ; preds = %94
  br label %96

96:                                               ; preds = %95
  %97 = load ptr, ptr %8, align 8
  %98 = getelementptr inbounds nuw %struct.step_complete_msg, ptr %97, i32 0, i32 1
  %99 = load ptr, ptr %6, align 8
  %100 = call i32 @unpack32(ptr noundef %98, ptr noundef %99)
  %101 = icmp ne i32 %100, 0
  br i1 %101, label %102, label %103

102:                                              ; preds = %96
  br label %126

103:                                              ; preds = %96
  br label %104

104:                                              ; preds = %103
  br label %105

105:                                              ; preds = %104
  br label %106

106:                                              ; preds = %105
  %107 = load ptr, ptr %8, align 8
  %108 = getelementptr inbounds nuw %struct.step_complete_msg, ptr %107, i32 0, i32 3
  %109 = load ptr, ptr %6, align 8
  %110 = call i32 @unpack32(ptr noundef %108, ptr noundef %109)
  %111 = icmp ne i32 %110, 0
  br i1 %111, label %112, label %113

112:                                              ; preds = %106
  br label %126

113:                                              ; preds = %106
  br label %114

114:                                              ; preds = %113
  br label %115

115:                                              ; preds = %114
  %116 = load ptr, ptr %8, align 8
  %117 = getelementptr inbounds nuw %struct.step_complete_msg, ptr %116, i32 0, i32 4
  %118 = load i16, ptr %7, align 2
  %119 = load ptr, ptr %6, align 8
  %120 = call i32 @jobacctinfo_unpack(ptr noundef %117, i16 noundef zeroext %118, i16 noundef zeroext 0, ptr noundef %119, i1 noundef zeroext true)
  %121 = icmp ne i32 %120, 0
  br i1 %121, label %122, label %123

122:                                              ; preds = %115
  br label %126

123:                                              ; preds = %115
  br label %124

124:                                              ; preds = %123, %73
  br label %125

125:                                              ; preds = %124, %72
  store i32 0, ptr %4, align 4
  store i32 1, ptr %9, align 4
  br label %129

126:                                              ; preds = %122, %112, %102, %92, %84, %69, %61, %51, %41, %31, %23
  %127 = load ptr, ptr %8, align 8
  call void @slurm_free_step_complete_msg(ptr noundef %127)
  %128 = load ptr, ptr %5, align 8
  store ptr null, ptr %128, align 8
  store i32 -1, ptr %4, align 4
  store i32 1, ptr %9, align 4
  br label %129

129:                                              ; preds = %126, %125
  call void @llvm.lifetime.end.p0(i64 8, ptr %8) #6
  %130 = load i32, ptr %4, align 4
  ret i32 %130
}