; Function Attrs: nounwind uwtable
define internal fastcc range(i32 -1, 1) i32 @_unpack_step_complete_msg(ptr noundef writeonly captures(none) initializes((0, 8)) %0, ptr noundef %1, i16 noundef zeroext %2) unnamed_addr #0 {
  %4 = tail call ptr @slurm_xcalloc(i64 noundef 1, i64 noundef 56, i1 noundef zeroext true, i1 noundef zeroext false, ptr noundef nonnull @.str.2, i32 noundef 9049, ptr noundef nonnull @__func__._unpack_step_complete_msg) #7
  store ptr %4, ptr %0, align 8
  %5 = icmp ugt i16 %2, 10495
  br i1 %5, label %6, label %23

6:                                                ; preds = %3
  %7 = getelementptr inbounds nuw i8, ptr %4, i64 8
  %8 = tail call i32 @unpack_step_id_members(ptr noundef nonnull %7, ptr noundef %1, i16 noundef zeroext %2)
  %.not37 = icmp eq i32 %8, 0
  br i1 %.not37, label %9, label %39

9:                                                ; preds = %6
  %10 = tail call i32 @unpack32(ptr noundef nonnull %4, ptr noundef %1) #7
  %.not38 = icmp eq i32 %10, 0
  br i1 %.not38, label %11, label %39

11:                                               ; preds = %9
  %12 = getelementptr inbounds nuw i8, ptr %4, i64 4
  %13 = tail call i32 @unpack32(ptr noundef nonnull %12, ptr noundef %1) #7
  %.not39 = icmp eq i32 %13, 0
  br i1 %.not39, label %14, label %39

14:                                               ; preds = %11
  %15 = getelementptr inbounds nuw i8, ptr %4, i64 32
  %16 = tail call i32 @unpack32(ptr noundef nonnull %15, ptr noundef %1) #7
  %.not40 = icmp eq i32 %16, 0
  br i1 %.not40, label %17, label %39

17:                                               ; preds = %14
  %18 = getelementptr inbounds nuw i8, ptr %4, i64 40
  %19 = tail call i32 @jobacctinfo_unpack(ptr noundef nonnull %18, i16 noundef zeroext %2, i16 noundef zeroext 0, ptr noundef %1, i1 noundef zeroext true) #7
  %.not41 = icmp eq i32 %19, 0
  br i1 %.not41, label %20, label %39

20:                                               ; preds = %17
  %21 = getelementptr inbounds nuw i8, ptr %4, i64 48
  %22 = tail call i32 @unpackbool(ptr noundef nonnull %21, ptr noundef %1) #7
  %.not42 = icmp eq i32 %22, 0
  br i1 %.not42, label %40, label %39

23:                                               ; preds = %3
  %24 = icmp samesign ugt i16 %2, 10239
  br i1 %24, label %25, label %40

25:                                               ; preds = %23
  %26 = getelementptr inbounds nuw i8, ptr %4, i64 8
  %27 = tail call i32 @unpack_step_id_members(ptr noundef nonnull %26, ptr noundef %1, i16 noundef zeroext %2)
  %.not = icmp eq i32 %27, 0
  br i1 %.not, label %28, label %39

28:                                               ; preds = %25
  %29 = tail call i32 @unpack32(ptr noundef nonnull %4, ptr noundef %1) #7
  %.not33 = icmp eq i32 %29, 0
  br i1 %.not33, label %30, label %39

30:                                               ; preds = %28
  %31 = getelementptr inbounds nuw i8, ptr %4, i64 4
  %32 = tail call i32 @unpack32(ptr noundef nonnull %31, ptr noundef %1) #7
  %.not34 = icmp eq i32 %32, 0
  br i1 %.not34, label %33, label %39

33:                                               ; preds = %30
  %34 = getelementptr inbounds nuw i8, ptr %4, i64 32
  %35 = tail call i32 @unpack32(ptr noundef nonnull %34, ptr noundef %1) #7
  %.not35 = icmp eq i32 %35, 0
  br i1 %.not35, label %36, label %39

36:                                               ; preds = %33
  %37 = getelementptr inbounds nuw i8, ptr %4, i64 40
  %38 = tail call i32 @jobacctinfo_unpack(ptr noundef nonnull %37, i16 noundef zeroext %2, i16 noundef zeroext 0, ptr noundef %1, i1 noundef zeroext true) #7
  %.not36 = icmp eq i32 %38, 0
  br i1 %.not36, label %40, label %39

39:                                               ; preds = %36, %33, %30, %28, %25, %20, %17, %14, %11, %9, %6
  tail call void @slurm_free_step_complete_msg(ptr noundef nonnull %4) #7
  store ptr null, ptr %0, align 8
  br label %40

40:                                               ; preds = %20, %36, %23, %39
  %.0 = phi i32 [ -1, %39 ], [ 0, %23 ], [ 0, %36 ], [ 0, %20 ]
  ret i32 %.0
}